target datalayout = "e-m:e-p270:32:32-p271:32:32-p272:64:64-i64:64-i128:128-f80:128-n8:16:32:64-S128"
target triple = "x86_64-pc-linux-gnu"

%struct.psa_verify_hash_interruptible_operation_s = type { i32, %union.psa_driver_verify_hash_interruptible_context_t, i8, i32 }
%union.psa_driver_verify_hash_interruptible_context_t = type { i32 }

; Function Attrs: nounwind uwtable
define hidden i32 @mbedtls_psa_verify_hash_abort(ptr noundef %0) #0 {
  %2 = alloca ptr, align 8
  store ptr %0, ptr %2, align 8, !tbaa !21
  ret i32 -134
}

; Function Attrs: inlinehint nounwind uwtable
define internal i32 @psa_driver_wrapper_verify_hash_abort(ptr noundef %0) #6 {
  %2 = alloca i32, align 4
  %3 = alloca ptr, align 8
  store ptr %0, ptr %3, align 8, !tbaa !84
  %4 = load ptr, ptr %3, align 8, !tbaa !84
  %5 = getelementptr inbounds nuw %struct.psa_verify_hash_interruptible_operation_s, ptr %4, i32 0, i32 0
  %6 = load i32, ptr %5, align 4, !tbaa !89
  switch i32 %6, label %11 [
    i32 1, label %7
  ]

7:                                                ; preds = %1
  %8 = load ptr, ptr %3, align 8, !tbaa !84
  %9 = getelementptr inbounds nuw %struct.psa_verify_hash_interruptible_operation_s, ptr %8, i32 0, i32 1
  %10 = call i32 @mbedtls_psa_verify_hash_abort(ptr noundef %9)
  store i32 %10, ptr %2, align 4
  br label %12

11:                                               ; preds = %1
  store i32 -135, ptr %2, align 4
  br label %12

12:                                               ; preds = %11, %7
  %13 = load i32, ptr %2, align 4
  ret i32 %13
}

; Function Attrs: nounwind uwtable
define internal i32 @psa_verify_hash_abort_internal(ptr noundef %0) #0 {
  %2 = alloca i32, align 4
  %3 = alloca ptr, align 8
  %4 = alloca i32, align 4
  store ptr %0, ptr %3, align 8, !tbaa !84
  %5 = load ptr, ptr %3, align 8, !tbaa !84
  %6 = getelementptr inbounds nuw %struct.psa_verify_hash_interruptible_operation_s, ptr %5, i32 0, i32 0
  %7 = load i32, ptr %6, align 4, !tbaa !89
  %8 = icmp eq i32 %7, 0
  br i1 %8, label %9, label %10

9:                                                ; preds = %1
  store i32 0, ptr %2, align 4
  br label %16

10:                                               ; preds = %1
  call void @llvm.lifetime.start.p0(i64 4, ptr %4) #8
  store i32 -151, ptr %4, align 4, !tbaa !3
  %11 = load ptr, ptr %3, align 8, !tbaa !84
  %12 = call i32 @psa_driver_wrapper_verify_hash_abort(ptr noundef %11)
  store i32 %12, ptr %4, align 4, !tbaa !3
  %13 = load ptr, ptr %3, align 8, !tbaa !84
  %14 = getelementptr inbounds nuw %struct.psa_verify_hash_interruptible_operation_s, ptr %13, i32 0, i32 0
  store i32 0, ptr %14, align 4, !tbaa !89
  %15 = load i32, ptr %4, align 4, !tbaa !3
  store i32 %15, ptr %2, align 4
  call void @llvm.lifetime.end.p0(i64 4, ptr %4) #8
  br label %16

16:                                               ; preds = %10, %9
  %17 = load i32, ptr %2, align 4
  ret i32 %17
}

; Function Attrs: nounwind uwtable
define hidden i32 @psa_verify_hash_abort(ptr noundef %0) #0 {
  %2 = alloca ptr, align 8
  %3 = alloca i32, align 4
  store ptr %0, ptr %2, align 8, !tbaa !84
  call void @llvm.lifetime.start.p0(i64 4, ptr %3) #8
  store i32 -151, ptr %3, align 4, !tbaa !3
  %4 = load ptr, ptr %2, align 8, !tbaa !84
  %5 = call i32 @psa_verify_hash_abort_internal(ptr noundef %4)
  store i32 %5, ptr %3, align 4, !tbaa !3
  %6 = load ptr, ptr %2, align 8, !tbaa !84
  %7 = getelementptr inbounds nuw %struct.psa_verify_hash_interruptible_operation_s, ptr %6, i32 0, i32 3
  store i32 0, ptr %7, align 4, !tbaa !86
  %8 = load ptr, ptr %2, align 8, !tbaa !84
  %9 = getelementptr inbounds nuw %struct.psa_verify_hash_interruptible_operation_s, ptr %8, i32 0, i32 2
  %10 = load i8, ptr %9, align 4
  %11 = and i8 %10, -2
  %12 = or i8 %11, 0
  store i8 %12, ptr %9, align 4
  %13 = load i32, ptr %3, align 4, !tbaa !3
  call void @llvm.lifetime.end.p0(i64 4, ptr %3) #8
  ret i32 %13
}