; Function Attrs: mustprogress nofree norecurse nosync nounwind willreturn memory(argmem: readwrite) uwtable
define hidden range(i32 -135, 1) i32 @psa_verify_hash_abort(ptr noundef captures(none) initializes((12, 16)) %0) local_unnamed_addr #10 {
  %2 = load i32, ptr %0, align 4, !tbaa !63
  %3 = icmp eq i32 %2, 0
  br i1 %3, label %psa_verify_hash_abort_internal.exit, label %4

4:                                                ; preds = %1
  %cond.i.i = icmp eq i32 %2, 1
  %spec.select.i.i = select i1 %cond.i.i, i32 -134, i32 -135
  store i32 0, ptr %0, align 4, !tbaa !63
  br label %psa_verify_hash_abort_internal.exit

psa_verify_hash_abort_internal.exit:              ; preds = %1, %4
  %.0.i = phi i32 [ %spec.select.i.i, %4 ], [ 0, %1 ]
  %5 = getelementptr inbounds nuw i8, ptr %0, i64 12
  store i32 0, ptr %5, align 4, !tbaa !60
  %6 = getelementptr inbounds nuw i8, ptr %0, i64 8
  %7 = load i8, ptr %6, align 4
  %8 = and i8 %7, -2
  store i8 %8, ptr %6, align 4
  ret i32 %.0.i
}